target datalayout = "e-m:e-p270:32:32-p271:32:32-p272:64:64-i64:64-i128:128-f80:128-n8:16:32:64-S128"
target triple = "x86_64-pc-linux-gnu"

@.str.78 = private unnamed_addr constant [16 x i8] c"not to my taste\00", align 1

; Function Attrs: nounwind uwtable
define internal i32 @test_certConf_cb(ptr noundef %0, ptr noundef %1, i32 noundef %2, ptr noundef %3) #0 {
  %5 = alloca ptr, align 8
  %6 = alloca ptr, align 8
  %7 = alloca i32, align 4
  %8 = alloca ptr, align 8
  %9 = alloca ptr, align 8
  store ptr %0, ptr %5, align 8, !tbaa !30
  store ptr %1, ptr %6, align 8, !tbaa !4
  store i32 %2, ptr %7, align 4, !tbaa !19
  store ptr %3, ptr %8, align 8, !tbaa !42
  call void @llvm.lifetime.start.p0(i64 8, ptr %9) #4
  %10 = load ptr, ptr %5, align 8, !tbaa !30
  %11 = call ptr @OSSL_CMP_CTX_get_certConf_cb_arg(ptr noundef %10)
  store ptr %11, ptr %9, align 8, !tbaa !44
  %12 = load ptr, ptr %9, align 8, !tbaa !44
  %13 = load i32, ptr %12, align 4, !tbaa !19
  %14 = icmp ne i32 %13, 0
  br i1 %14, label %15, label %17

15:                                               ; preds = %4
  %16 = load ptr, ptr %8, align 8, !tbaa !42
  store ptr @.str.78, ptr %16, align 8, !tbaa !15
  store i32 19, ptr %7, align 4, !tbaa !19
  br label %17

17:                                               ; preds = %15, %4
  %18 = load i32, ptr %7, align 4, !tbaa !19
  call void @llvm.lifetime.end.p0(i64 8, ptr %9) #4
  ret i32 %18
}