; Function Attrs: nounwind uwtable
define internal noundef i32 @test_certConf_cb(ptr noundef %0, ptr readnone captures(none) %1, i32 noundef %2, ptr noundef writeonly captures(none) %3) #0 {
  %5 = tail call ptr @OSSL_CMP_CTX_get_certConf_cb_arg(ptr noundef %0) #4
  %6 = load i32, ptr %5, align 4, !tbaa !28
  %.not = icmp eq i32 %6, 0
  br i1 %.not, label %8, label %7

7:                                                ; preds = %4
  store ptr @.str.78, ptr %3, align 8, !tbaa !15
  br label %8

8:                                                ; preds = %7, %4
  %.0 = phi i32 [ 19, %7 ], [ %2, %4 ]
  ret i32 %.0
}